target datalayout = "e-m:e-p270:32:32-p271:32:32-p272:64:64-i64:64-i128:128-f80:128-n8:16:32:64-S128"
target triple = "x86_64-pc-linux-gnu"

%struct._address = type { i32, i32, ptr, ptr }
%struct._radius_attr_info_t = type { ptr, %union._radius_attr_type_t, i32, i8, i8, ptr, ptr, ptr, i32, i32, i32, i32, i32, i32, ptr }
%union._radius_attr_type_t = type { i32 }
%struct._packet_info = type { ptr, ptr, i32, i32, %struct.nstime_t, %struct.nstime_t, %struct.nstime_t, i8, ptr, ptr, ptr, ptr, %struct._address, %struct._address, %struct._address, %struct._address, %struct._address, %struct._address, i32, ptr, i8, [3 x i8], %struct.anon, i32, i32, i32, i32, ptr, i8, ptr, ptr, i16, i16, i32, i32, i16, i32, i32, ptr, ptr, ptr, i8, i8, i16, i16, i16, i32, i16, i16, ptr, ptr, ptr, ptr, ptr, i32, i32 }
%struct.nstime_t = type { i64, i32 }
%struct.anon = type { i8, [3 x i8] }

@.str.8 = private unnamed_addr constant [3 x i8] c"%s\00", align 1
@.str.16 = private unnamed_addr constant [49 x i8] c"[wrong length for both of IPv4 and IPv6 address]\00", align 1

; Function Attrs: null_pointer_is_valid sspstrong uwtable
define hidden void @radius_combo_ip(ptr noundef %0, ptr noundef %1, ptr noundef %2, ptr noundef %3, i32 noundef %4, i32 noundef %5, ptr noundef %6) #0 {
  %8 = alloca ptr, align 8
  %9 = alloca ptr, align 8
  %10 = alloca ptr, align 8
  %11 = alloca ptr, align 8
  %12 = alloca i32, align 4
  %13 = alloca i32, align 4
  %14 = alloca ptr, align 8
  store ptr %0, ptr %8, align 8
  store ptr %1, ptr %9, align 8
  store ptr %2, ptr %10, align 8
  store ptr %3, ptr %11, align 8
  store i32 %4, ptr %12, align 4
  store i32 %5, ptr %13, align 4
  store ptr %6, ptr %14, align 8
  %15 = load i32, ptr %13, align 4
  %16 = icmp eq i32 %15, 4
  br i1 %16, label %17, label %33

17:                                               ; preds = %7
  %18 = load ptr, ptr %9, align 8
  %19 = load ptr, ptr %8, align 8
  %20 = getelementptr inbounds nuw %struct._radius_attr_info_t, ptr %19, i32 0, i32 9
  %21 = load i32, ptr %20, align 4
  %22 = load ptr, ptr %11, align 8
  %23 = load i32, ptr %12, align 4
  %24 = load i32, ptr %13, align 4
  %25 = call ptr @proto_tree_add_item(ptr noundef %18, i32 noundef %21, ptr noundef %22, i32 noundef %23, i32 noundef %24, i32 noundef 0)
  %26 = load ptr, ptr %14, align 8
  %27 = load ptr, ptr %10, align 8
  %28 = getelementptr inbounds nuw %struct._packet_info, ptr %27, i32 0, i32 51
  %29 = load ptr, ptr %28, align 8
  %30 = load ptr, ptr %11, align 8
  %31 = load i32, ptr %12, align 4
  %32 = call ptr @tvb_address_to_str(ptr noundef %29, ptr noundef %30, i32 noundef 2, i32 noundef %31)
  call void (ptr, ptr, ...) @proto_item_append_text(ptr noundef %26, ptr noundef @.str.8, ptr noundef %32)
  br label %55

33:                                               ; preds = %7
  %34 = load i32, ptr %13, align 4
  %35 = icmp eq i32 %34, 16
  br i1 %35, label %36, label %52

36:                                               ; preds = %33
  %37 = load ptr, ptr %9, align 8
  %38 = load ptr, ptr %8, align 8
  %39 = getelementptr inbounds nuw %struct._radius_attr_info_t, ptr %38, i32 0, i32 10
  %40 = load i32, ptr %39, align 8
  %41 = load ptr, ptr %11, align 8
  %42 = load i32, ptr %12, align 4
  %43 = load i32, ptr %13, align 4
  %44 = call ptr @proto_tree_add_item(ptr noundef %37, i32 noundef %40, ptr noundef %41, i32 noundef %42, i32 noundef %43, i32 noundef 0)
  %45 = load ptr, ptr %14, align 8
  %46 = load ptr, ptr %10, align 8
  %47 = getelementptr inbounds nuw %struct._packet_info, ptr %46, i32 0, i32 51
  %48 = load ptr, ptr %47, align 8
  %49 = load ptr, ptr %11, align 8
  %50 = load i32, ptr %12, align 4
  %51 = call ptr @tvb_address_to_str(ptr noundef %48, ptr noundef %49, i32 noundef 3, i32 noundef %50)
  call void (ptr, ptr, ...) @proto_item_append_text(ptr noundef %45, ptr noundef @.str.8, ptr noundef %51)
  br label %54

52:                                               ; preds = %33
  %53 = load ptr, ptr %14, align 8
  call void (ptr, ptr, ...) @proto_item_append_text(ptr noundef %53, ptr noundef @.str.16)
  br label %55

54:                                               ; preds = %36
  br label %55

55:                                               ; preds = %52, %54, %17
  ret void
}