; Function Attrs: null_pointer_is_valid sspstrong uwtable
define hidden void @radius_combo_ip(ptr noundef readonly captures(none) %0, ptr noundef %1, ptr noundef readonly captures(none) %2, ptr noundef %3, i32 noundef %4, i32 noundef %5, ptr noundef %6) #0 {
  switch i32 %5, label %22 [
    i32 4, label %8
    i32 16, label %15
  ]

8:                                                ; preds = %7
  %9 = getelementptr inbounds nuw i8, ptr %0, i64 52
  %10 = load i32, ptr %9, align 4
  %11 = tail call ptr @proto_tree_add_item(ptr noundef %1, i32 noundef %10, ptr noundef %3, i32 noundef %4, i32 noundef 4, i32 noundef 0)
  %12 = getelementptr inbounds nuw i8, ptr %2, i64 408
  %13 = load ptr, ptr %12, align 8
  %14 = tail call ptr @tvb_address_to_str(ptr noundef %13, ptr noundef %3, i32 noundef 2, i32 noundef %4)
  tail call void (ptr, ptr, ...) @proto_item_append_text(ptr noundef %6, ptr noundef nonnull @.str.8, ptr noundef %14)
  br label %23

15:                                               ; preds = %7
  %16 = getelementptr inbounds nuw i8, ptr %0, i64 56
  %17 = load i32, ptr %16, align 8
  %18 = tail call ptr @proto_tree_add_item(ptr noundef %1, i32 noundef %17, ptr noundef %3, i32 noundef %4, i32 noundef 16, i32 noundef 0)
  %19 = getelementptr inbounds nuw i8, ptr %2, i64 408
  %20 = load ptr, ptr %19, align 8
  %21 = tail call ptr @tvb_address_to_str(ptr noundef %20, ptr noundef %3, i32 noundef 3, i32 noundef %4)
  tail call void (ptr, ptr, ...) @proto_item_append_text(ptr noundef %6, ptr noundef nonnull @.str.8, ptr noundef %21)
  br label %23

22:                                               ; preds = %7
  tail call void (ptr, ptr, ...) @proto_item_append_text(ptr noundef %6, ptr noundef nonnull @.str.16)
  br label %23

23:                                               ; preds = %15, %22, %8
  ret void
}